(dp0
S'stddev'
p1
ccopy_reg
_reconstructor
p2
(cpandas.core.frame
DataFrame
p3
c__builtin__
object
p4
Ntp5
Rp6
(dp7
S'_metadata'
p8
(lp9
sS'_typ'
p10
S'dataframe'
p11
sS'_data'
p12
g2
(cpandas.core.internals
BlockManager
p13
g4
Ntp14
Rp15
((lp16
cpandas.core.index
_new_Index
p17
(cpandas.core.index
Index
p18
(dp19
S'data'
p20
cnumpy.core.multiarray
_reconstruct
p21
(cnumpy
ndarray
p22
(I0
tp23
S'b'
p24
tp25
Rp26
(I1
(L59L
tp27
cnumpy
dtype
p28
(S'O8'
p29
I0
I1
tp30
Rp31
(I3
S'|'
p32
NNNI-1
I-1
I63
tp33
bI00
(lp34
S'HZ'
p35
aS'HG13'
p36
aS'HD22'
p37
aS'HD21'
p38
aS'CZ2'
p39
aS'CZ3'
p40
aS'NE'
p41
aS'HH'
p42
aS'CD1'
p43
aS'CD2'
p44
aS'HB'
p45
aS'HE22'
p46
aS'HE21'
p47
aS'HA'
p48
aS'HG'
p49
aS'HE'
p50
aS'CG2'
p51
aS'HE1'
p52
aS'HE2'
p53
aS'HE3'
p54
aS'HG2'
p55
aS'HG3'
p56
aS'HG1'
p57
aS'HH22'
p58
aS'HG12'
p59
aS'HH21'
p60
aS'HZ3'
p61
aS'CB'
p62
aS'ND1'
p63
aS'HZ2'
p64
aS'HA2'
p65
aS'ND2'
p66
aS'C'
p67
aS'H'
p68
aS'CA'
p69
aS'NZ'
p70
aS'CG'
p71
aS'CE'
p72
aS'N'
p73
aS'CZ'
p74
aS'NH1'
p75
aS'CE2'
p76
aS'CE1'
p77
aS'NH2'
p78
aS'CG1'
p79
aS'CD'
p80
aS'HH2'
p81
aS'HA3'
p82
aS'HD3'
p83
aS'HD2'
p84
aS'HD1'
p85
aS'CH2'
p86
aS'HH12'
p87
aS'HH11'
p88
aS'CE3'
p89
aS'NE1'
p90
aS'NE2'
p91
aS'HB3'
p92
aS'HB2'
p93
atp94
bsS'name'
p95
Nstp96
Rp97
ag17
(g18
(dp98
g20
g21
(g22
(I0
tp99
g24
tp100
Rp101
(I1
(L20L
tp102
g31
I00
(lp103
S'CYS'
p104
aS'ASP'
p105
aS'SER'
p106
aS'GLN'
p107
aS'LYS'
p108
aS'ILE'
p109
aS'PRO'
p110
aS'THR'
p111
aS'PHE'
p112
aS'ASN'
p113
aS'GLY'
p114
aS'HIS'
p115
aS'LEU'
p116
aS'ARG'
p117
aS'TRP'
p118
aS'ALA'
p119
aS'VAL'
p120
aS'GLU'
p121
aS'TYR'
p122
aS'MET'
p123
atp124
bsg95
Nstp125
Rp126
a(lp127
g21
(g22
(I0
tp128
g24
tp129
Rp130
(I1
(L59L
L20L
tp131
g31
I00
(lp132
Fnan
aFnan
aFnan
aFnan
aF0.67
aFnan
aFnan
aFnan
aF0.41
aFnan
aFnan
aFnan
aFnan
aFnan
aFnan
aFnan
aFnan
aFnan
aFnan
aFnan
aFnan
aFnan
aFnan
aFnan
aFnan
aF0.41
aFnan
aFnan
aFnan
aFnan
aFnan
aFnan
aFnan
aFnan
aFnan
aFnan
aFnan
aFnan
aFnan
aFnan
aFnan
aFnan
aFnan
aFnan
aFnan
aFnan
aFnan
aFnan
aFnan
aF0.5
aFnan
aFnan
aFnan
aFnan
aFnan
aFnan
aFnan
aFnan
aFnan
aFnan
aFnan
aFnan
aFnan
aFnan
aFnan
aFnan
aFnan
aFnan
aFnan
aF0.49
aFnan
aFnan
aFnan
aFnan
aFnan
aFnan
aFnan
aFnan
aFnan
aFnan
aFnan
aFnan
aFnan
aFnan
aFnan
aFnan
aFnan
aFnan
aFnan
aFnan
aFnan
aFnan
aFnan
aFnan
aF1.45
aFnan
aFnan
aFnan
aFnan
aFnan
aFnan
aFnan
aFnan
aFnan
aFnan
aFnan
aFnan
aFnan
aFnan
aFnan
aFnan
aFnan
aFnan
aFnan
aF1.6
aFnan
aFnan
aFnan
aFnan
aFnan
aFnan
aFnan
aFnan
aFnan
aFnan
aFnan
aFnan
aFnan
aFnan
aFnan
aFnan
aFnan
aFnan
aF1.6
aFnan
aFnan
aFnan
aFnan
aFnan
aFnan
aFnan
aFnan
aFnan
aFnan
aFnan
aFnan
aFnan
aFnan
aFnan
aFnan
aFnan
aFnan
aFnan
aFnan
aFnan
aFnan
aFnan
aFnan
aF1.62
aFnan
aFnan
aFnan
aFnan
aFnan
aFnan
aF1.67
aFnan
aFnan
aF1.22
aFnan
aFnan
aFnan
aF1.59
aFnan
aF1.86
aFnan
aFnan
aFnan
aF1.35
aFnan
aFnan
aFnan
aFnan
aFnan
aFnan
aFnan
aFnan
aFnan
aF1.21
aFnan
aFnan
aF3.37
aF1.69
aFnan
aF1.83
aFnan
aFnan
aFnan
aF1.49
aFnan
aFnan
aFnan
aFnan
aFnan
aFnan
aF0.29
aFnan
aF0.32
aFnan
aFnan
aFnan
aFnan
aFnan
aFnan
aFnan
aF0.25
aF0.31
aFnan
aFnan
aFnan
aFnan
aFnan
aFnan
aF0.43
aFnan
aFnan
aFnan
aFnan
aFnan
aFnan
aFnan
aFnan
aFnan
aFnan
aFnan
aFnan
aFnan
aFnan
aFnan
aFnan
aFnan
aFnan
aFnan
aF0.45
aFnan
aFnan
aFnan
aFnan
aFnan
aFnan
aFnan
aFnan
aFnan
aFnan
aFnan
aFnan
aFnan
aFnan
aFnan
aFnan
aF0.54
aF0.31
aF0.4
aF0.42
aF0.43
aF0.55
aF0.33
aF0.47
aF0.56
aF0.36
aFnan
aF0.43
aF0.46
aF0.46
aF0.52
aF0.43
aF0.57
aF0.4
aF0.56
aF0.46
aF1.12
aFnan
aF1.04
aFnan
aFnan
aFnan
aFnan
aFnan
aFnan
aFnan
aFnan
aFnan
aF0.33
aFnan
aFnan
aFnan
aFnan
aFnan
aFnan
aFnan
aFnan
aFnan
aFnan
aFnan
aFnan
aFnan
aFnan
aFnan
aFnan
aFnan
aFnan
aFnan
aFnan
aF0.59
aFnan
aFnan
aFnan
aFnan
aFnan
aF0.4
aFnan
aFnan
aFnan
aFnan
aFnan
aF1.35
aFnan
aF1.11
aFnan
aFnan
aFnan
aFnan
aFnan
aFnan
aFnan
aFnan
aF1.54
aFnan
aFnan
aFnan
aFnan
aFnan
aFnan
aFnan
aFnan
aFnan
aFnan
aFnan
aF0.31
aFnan
aFnan
aF0.48
aFnan
aFnan
aF0.64
aFnan
aFnan
aFnan
aF0.23
aFnan
aFnan
aFnan
aFnan
aFnan
aF0.19
aFnan
aFnan
aFnan
aF0.31
aFnan
aFnan
aF2.41
aFnan
aFnan
aFnan
aFnan
aFnan
aF0.1
aF0.23
aFnan
aFnan
aFnan
aFnan
aFnan
aF0.2
aFnan
aFnan
aFnan
aFnan
aFnan
aFnan
aFnan
aFnan
aFnan
aF0.41
aFnan
aFnan
aFnan
aFnan
aFnan
aFnan
aFnan
aFnan
aF0.27
aF0.25
aF0.27
aF0.31
aF0.22
aFnan
aFnan
aFnan
aFnan
aFnan
aF0.27
aFnan
aFnan
aF0.28
aF0.21
aFnan
aF0.35
aFnan
aFnan
aFnan
aF0.28
aF0.27
aFnan
aF0.32
aFnan
aFnan
aFnan
aFnan
aFnan
aFnan
aF0.28
aFnan
aFnan
aFnan
aF0.21
aFnan
aF0.37
aFnan
aFnan
aFnan
aFnan
aFnan
aFnan
aFnan
aF1.17
aFnan
aFnan
aFnan
aFnan
aFnan
aFnan
aFnan
aFnan
aF0.26
aFnan
aFnan
aFnan
aFnan
aFnan
aFnan
aFnan
aFnan
aFnan
aFnan
aFnan
aFnan
aFnan
aFnan
aFnan
aFnan
aF0.49
aFnan
aFnan
aFnan
aFnan
aFnan
aFnan
aFnan
aFnan
aFnan
aFnan
aFnan
aF0.4
aFnan
aFnan
aFnan
aFnan
aFnan
aFnan
aFnan
aFnan
aFnan
aFnan
aFnan
aFnan
aFnan
aFnan
aFnan
aFnan
aFnan
aFnan
aFnan
aFnan
aFnan
aFnan
aFnan
aFnan
aFnan
aFnan
aFnan
aF0.49
aFnan
aFnan
aFnan
aFnan
aFnan
aFnan
aFnan
aFnan
aFnan
aFnan
aFnan
aFnan
aFnan
aFnan
aFnan
aFnan
aFnan
aFnan
aFnan
aFnan
aF0.37
aFnan
aFnan
aFnan
aFnan
aFnan
aF6.37
aF1.62
aF1.51
aF1.81
aF1.77
aF2.0
aF1.2
aF1.73
aF2.07
aF1.66
aFnan
aF2.11
aF1.86
aF1.81
aF1.99
aF1.78
aF1.78
aF1.7
aF2.14
aF2.18
aFnan
aFnan
aFnan
aFnan
aFnan
aFnan
aFnan
aFnan
aFnan
aFnan
aFnan
aF18.37
aFnan
aFnan
aFnan
aFnan
aFnan
aFnan
aFnan
aFnan
aFnan
aFnan
aFnan
aFnan
aFnan
aFnan
aFnan
aFnan
aFnan
aFnan
aFnan
aFnan
aFnan
aFnan
aF0.32
aFnan
aFnan
aFnan
aFnan
aFnan
aFnan
aFnan
aFnan
aFnan
aFnan
aFnan
aFnan
aFnan
aFnan
aFnan
aF0.37
aFnan
aFnan
aFnan
aFnan
aFnan
aFnan
aFnan
aFnan
aFnan
aFnan
aFnan
aFnan
aFnan
aFnan
aFnan
aFnan
aFnan
aFnan
aF2.28
aFnan
aFnan
aFnan
aFnan
aFnan
aFnan
aFnan
aFnan
aFnan
aFnan
aF2.04
aF1.72
aF1.73
aF1.92
aF1.92
aF1.91
aF1.49
aF1.73
aF1.98
aF1.78
aF1.86
aF1.94
aF1.94
aF2.01
aF1.99
aF2.07
aF1.86
aF1.91
aF1.97
aF2.06
aF0.68
aF0.56
aF0.58
aF0.58
aF0.6
aF0.68
aFnan
aF0.62
aF0.72
aF0.62
aF0.63
aF0.68
aF0.63
aF0.61
aF0.77
aF0.58
aF0.66
aF0.58
aF0.72
aF0.58
aF3.42
aF2.03
aF2.07
aF2.1
aF2.18
aF2.68
aF1.53
aF2.59
aF2.58
aF1.87
aF1.31
aF2.31
aF2.12
aF2.3
aF2.54
aF1.94
aF2.84
aF2.07
aF2.5
aF2.2
aFnan
aFnan
aFnan
aFnan
aF1.73
aFnan
aFnan
aFnan
aFnan
aFnan
aFnan
aFnan
aFnan
aFnan
aFnan
aFnan
aFnan
aFnan
aFnan
aFnan
aFnan
aF1.83
aFnan
aF1.12
aF1.14
aFnan
aF1.11
aFnan
aF2.89
aF1.39
aFnan
aF3.28
aF1.1
aF1.21
aF1.83
aFnan
aFnan
aF1.21
aF2.54
aF1.3
aFnan
aFnan
aFnan
aFnan
aF0.89
aFnan
aFnan
aFnan
aFnan
aFnan
aFnan
aFnan
aFnan
aFnan
aFnan
aFnan
aFnan
aFnan
aFnan
aF1.68
aF4.47
aF3.79
aF3.49
aF3.54
aF3.7
aF4.23
aF5.88
aF4.72
aF4.14
aF3.92
aF3.69
aF4.01
aF3.86
aF3.64
aF4.05
aF3.47
aF4.44
aF3.45
aF4.1
aF3.48
aFnan
aFnan
aFnan
aFnan
aFnan
aFnan
aFnan
aFnan
aF1.49
aFnan
aFnan
aFnan
aFnan
aF3.89
aFnan
aFnan
aFnan
aFnan
aF1.49
aFnan
aFnan
aFnan
aFnan
aFnan
aFnan
aFnan
aFnan
aFnan
aFnan
aFnan
aFnan
aFnan
aFnan
aF5.29
aFnan
aFnan
aFnan
aFnan
aFnan
aFnan
aFnan
aFnan
aFnan
aFnan
aFnan
aFnan
aFnan
aFnan
aF1.2
aFnan
aFnan
aFnan
aFnan
aFnan
aF7.13
aFnan
aFnan
aFnan
aF1.24
aFnan
aFnan
aFnan
aFnan
aFnan
aFnan
aFnan
aFnan
aFnan
aF1.3
aFnan
aFnan
aF2.25
aFnan
aFnan
aFnan
aFnan
aFnan
aFnan
aF1.27
aFnan
aFnan
aFnan
aFnan
aFnan
aFnan
aFnan
aFnan
aFnan
aFnan
aFnan
aFnan
aFnan
aFnan
aF3.0
aFnan
aFnan
aFnan
aFnan
aFnan
aFnan
aFnan
aFnan
aFnan
aFnan
aFnan
aF1.71
aFnan
aFnan
aFnan
aFnan
aFnan
aFnan
aFnan
aFnan
aFnan
aFnan
aF1.36
aFnan
aFnan
aFnan
aFnan
aFnan
aFnan
aF1.23
aF1.12
aFnan
aF1.06
aFnan
aFnan
aFnan
aFnan
aFnan
aFnan
aF0.94
aFnan
aFnan
aFnan
aF2.48
aFnan
aFnan
aFnan
aFnan
aFnan
aFnan
aFnan
aFnan
aFnan
aFnan
aFnan
aFnan
aFnan
aFnan
aFnan
aFnan
aF0.37
aFnan
aFnan
aFnan
aFnan
aFnan
aFnan
aFnan
aFnan
aFnan
aFnan
aFnan
aFnan
aFnan
aFnan
aFnan
aF0.37
aFnan
aFnan
aFnan
aFnan
aFnan
aFnan
aFnan
aFnan
aFnan
aFnan
aFnan
aFnan
aFnan
aF0.22
aFnan
aF0.38
aFnan
aFnan
aFnan
aFnan
aFnan
aFnan
aF0.25
aFnan
aFnan
aFnan
aFnan
aFnan
aFnan
aFnan
aF1.87
aFnan
aFnan
aF0.21
aFnan
aF0.35
aFnan
aF0.31
aFnan
aFnan
aF0.41
aF0.28
aF0.23
aFnan
aFnan
aFnan
aFnan
aF0.3
aFnan
aFnan
aFnan
aFnan
aFnan
aFnan
aF0.29
aFnan
aFnan
aF0.31
aFnan
aFnan
aF2.46
aF0.27
aFnan
aF0.34
aFnan
aFnan
aFnan
aF0.3
aFnan
aFnan
aFnan
aFnan
aFnan
aFnan
aFnan
aFnan
aFnan
aFnan
aFnan
aFnan
aFnan
aFnan
aFnan
aF1.57
aFnan
aFnan
aFnan
aFnan
aFnan
aFnan
aFnan
aFnan
aFnan
aFnan
aFnan
aFnan
aFnan
aFnan
aFnan
aFnan
aFnan
aFnan
aF0.49
aFnan
aFnan
aFnan
aFnan
aFnan
aFnan
aFnan
aFnan
aFnan
aFnan
aFnan
aFnan
aFnan
aFnan
aFnan
aFnan
aFnan
aFnan
aFnan
aF0.46
aFnan
aFnan
aFnan
aFnan
aFnan
aFnan
aFnan
aFnan
aFnan
aFnan
aFnan
aFnan
aFnan
aFnan
aFnan
aFnan
aFnan
aFnan
aFnan
aFnan
aF1.82
aFnan
aFnan
aFnan
aFnan
aFnan
aFnan
aFnan
aFnan
aFnan
aFnan
aFnan
aFnan
aFnan
aFnan
aFnan
aFnan
aFnan
aFnan
aFnan
aF2.08
aFnan
aFnan
aFnan
aFnan
aFnan
aFnan
aFnan
aFnan
aF1.69
aFnan
aFnan
aFnan
aFnan
aFnan
aFnan
aFnan
aF16.6
aFnan
aFnan
aFnan
aFnan
aFnan
aFnan
aFnan
aFnan
aF0.45
aF0.27
aF0.27
aF0.27
aF0.26
aFnan
aF0.35
aFnan
aF0.39
aF0.33
aFnan
aF0.37
aF0.36
aF0.27
aF0.36
aFnan
aFnan
aF0.21
aF0.39
aF0.34
aF0.44
aF0.26
aF0.25
aF0.25
aF0.24
aFnan
aF0.35
aFnan
aF0.37
aF0.31
aFnan
aF0.35
aF0.34
aF0.26
aF0.34
aFnan
aFnan
aF0.21
aF0.37
aF0.33
atp133
ba(lp134
g17
(g18
(dp135
g20
g21
(g22
(I0
tp136
g24
tp137
Rp138
(I1
(L59L
tp139
g31
I00
(lp140
g35
ag36
ag37
ag38
ag39
ag40
ag41
ag42
ag43
ag44
ag45
ag46
ag47
ag48
ag49
ag50
ag51
ag52
ag53
ag54
ag55
ag56
ag57
ag58
ag59
ag60
ag61
ag62
ag63
ag64
ag65
ag66
ag67
ag68
ag69
ag70
ag71
ag72
ag73
ag74
ag75
ag76
ag77
ag78
ag79
ag80
ag81
ag82
ag83
ag84
ag85
ag86
ag87
ag88
ag89
ag90
ag91
ag92
ag93
atp141
bsg95
Nstp142
Rp143
a(dp144
S'0.14.1'
p145
(dp146
S'axes'
p147
g16
sS'blocks'
p148
(lp149
(dp150
S'mgr_locs'
p151
c__builtin__
slice
p152
(I0
I59
L1L
tp153
Rp154
sS'values'
p155
g130
sasstp156
bsbsS'mean'
p157
g2
(g3
g4
Ntp158
Rp159
(dp160
g8
g9
sg10
g11
sg12
g2
(g13
g4
Ntp161
Rp162
((lp163
g17
(g18
(dp164
g20
g21
(g22
(I0
tp165
g24
tp166
Rp167
(I1
(L59L
tp168
g31
I00
(lp169
g35
ag36
ag37
ag38
ag39
ag40
ag41
ag42
ag43
ag44
ag45
ag46
ag47
ag48
ag49
ag50
ag51
ag52
ag53
ag54
ag55
ag56
ag57
ag58
ag59
ag60
ag61
ag62
ag63
ag64
ag65
ag66
ag67
ag68
ag69
ag70
ag71
ag72
ag73
ag74
ag75
ag76
ag77
ag78
ag79
ag80
ag81
ag82
ag83
ag84
ag85
ag86
ag87
ag88
ag89
ag90
ag91
ag92
ag93
atp170
bsg95
Nstp171
Rp172
ag17
(g18
(dp173
g20
g21
(g22
(I0
tp174
g24
tp175
Rp176
(I1
(L20L
tp177
g31
I00
(lp178
g104
ag105
ag106
ag107
ag108
ag109
ag110
ag111
ag112
ag113
ag114
ag115
ag116
ag117
ag118
ag119
ag120
ag121
ag122
ag123
atp179
bsg95
Nstp180
Rp181
a(lp182
g21
(g22
(I0
tp183
g24
tp184
Rp185
(I1
(L59L
L20L
tp186
g31
I00
(lp187
Fnan
aFnan
aFnan
aFnan
aF7.39
aFnan
aFnan
aFnan
aF6.99
aFnan
aFnan
aFnan
aFnan
aFnan
aFnan
aFnan
aFnan
aFnan
aFnan
aFnan
aFnan
aFnan
aFnan
aFnan
aFnan
aF1.2
aFnan
aFnan
aFnan
aFnan
aFnan
aFnan
aFnan
aFnan
aFnan
aFnan
aFnan
aFnan
aFnan
aFnan
aFnan
aFnan
aFnan
aFnan
aFnan
aFnan
aFnan
aFnan
aFnan
aF7.15
aFnan
aFnan
aFnan
aFnan
aFnan
aFnan
aFnan
aFnan
aFnan
aFnan
aFnan
aFnan
aFnan
aFnan
aFnan
aFnan
aFnan
aFnan
aFnan
aF7.32
aFnan
aFnan
aFnan
aFnan
aFnan
aFnan
aFnan
aFnan
aFnan
aFnan
aFnan
aFnan
aFnan
aFnan
aFnan
aFnan
aFnan
aFnan
aFnan
aFnan
aFnan
aFnan
aFnan
aFnan
aF114.26
aFnan
aFnan
aFnan
aFnan
aFnan
aFnan
aFnan
aFnan
aFnan
aFnan
aFnan
aFnan
aFnan
aFnan
aFnan
aFnan
aFnan
aFnan
aFnan
aF121.36
aFnan
aFnan
aFnan
aFnan
aFnan
aFnan
aFnan
aFnan
aFnan
aFnan
aFnan
aFnan
aFnan
aFnan
aFnan
aFnan
aFnan
aFnan
aF84.58
aFnan
aFnan
aFnan
aFnan
aFnan
aFnan
aFnan
aFnan
aFnan
aFnan
aFnan
aFnan
aFnan
aFnan
aFnan
aFnan
aFnan
aFnan
aFnan
aFnan
aFnan
aFnan
aFnan
aFnan
aF9.13
aFnan
aFnan
aFnan
aFnan
aFnan
aFnan
aF13.4
aFnan
aFnan
aF131.59
aFnan
aFnan
aFnan
aF24.66
aFnan
aF126.56
aFnan
aFnan
aFnan
aF132.73
aFnan
aFnan
aFnan
aFnan
aFnan
aFnan
aFnan
aFnan
aFnan
aF131.59
aFnan
aFnan
aF120.39
aF24.07
aFnan
aF127.69
aFnan
aFnan
aFnan
aF132.7
aFnan
aFnan
aFnan
aFnan
aFnan
aFnan
aF1.78
aFnan
aF4.16
aFnan
aFnan
aFnan
aFnan
aFnan
aFnan
aFnan
aF1.36
aF1.98
aFnan
aFnan
aFnan
aFnan
aFnan
aFnan
aF7.04
aFnan
aFnan
aFnan
aFnan
aFnan
aFnan
aFnan
aFnan
aFnan
aFnan
aFnan
aFnan
aFnan
aFnan
aFnan
aFnan
aFnan
aFnan
aFnan
aF7.22
aFnan
aFnan
aFnan
aFnan
aFnan
aFnan
aFnan
aFnan
aFnan
aFnan
aFnan
aFnan
aFnan
aFnan
aFnan
aFnan
aF4.65
aF4.58
aF4.47
aF4.26
aF4.26
aF4.16
aF4.39
aF4.45
aF4.61
aF4.66
aFnan
aF4.6
aF4.3
aF4.29
aF4.66
aF4.24
aF4.16
aF4.24
aF4.6
aF4.39
aF2.03
aFnan
aF5.38
aFnan
aFnan
aFnan
aFnan
aFnan
aFnan
aFnan
aFnan
aFnan
aF1.51
aFnan
aFnan
aFnan
aFnan
aFnan
aFnan
aFnan
aFnan
aFnan
aFnan
aFnan
aFnan
aFnan
aFnan
aFnan
aFnan
aFnan
aFnan
aFnan
aFnan
aF7.36
aFnan
aFnan
aFnan
aFnan
aFnan
aF1.89
aFnan
aFnan
aFnan
aFnan
aFnan
aF17.52
aFnan
aF21.54
aFnan
aFnan
aFnan
aFnan
aFnan
aFnan
aFnan
aFnan
aF21.28
aFnan
aFnan
aFnan
aFnan
aFnan
aFnan
aFnan
aFnan
aFnan
aFnan
aFnan
aF7.08
aFnan
aFnan
aF7.96
aFnan
aFnan
aF10.08
aFnan
aFnan
aFnan
aF6.7
aFnan
aFnan
aFnan
aFnan
aFnan
aF2.91
aFnan
aFnan
aFnan
aF7.08
aFnan
aFnan
aF9.63
aFnan
aFnan
aFnan
aFnan
aFnan
aF2.82
aF6.7
aFnan
aFnan
aFnan
aFnan
aFnan
aF2.91
aFnan
aFnan
aFnan
aFnan
aFnan
aFnan
aFnan
aFnan
aFnan
aF7.32
aFnan
aFnan
aFnan
aFnan
aFnan
aFnan
aFnan
aFnan
aF2.31
aF1.37
aF0.78
aF1.93
aF1.14
aFnan
aFnan
aFnan
aFnan
aFnan
aF1.57
aFnan
aFnan
aF0.8
aF2.27
aFnan
aF2.42
aFnan
aFnan
aFnan
aF2.29
aF1.35
aFnan
aF1.9
aFnan
aFnan
aFnan
aFnan
aFnan
aFnan
aF1.55
aFnan
aFnan
aFnan
aF2.25
aFnan
aF2.39
aFnan
aFnan
aFnan
aFnan
aFnan
aFnan
aFnan
aF5.16
aFnan
aFnan
aFnan
aFnan
aFnan
aFnan
aFnan
aFnan
aF0.83
aFnan
aFnan
aFnan
aFnan
aFnan
aFnan
aFnan
aFnan
aFnan
aFnan
aFnan
aFnan
aFnan
aFnan
aFnan
aFnan
aF6.83
aFnan
aFnan
aFnan
aFnan
aFnan
aFnan
aFnan
aFnan
aFnan
aFnan
aFnan
aF1.27
aFnan
aFnan
aFnan
aFnan
aFnan
aFnan
aFnan
aFnan
aFnan
aFnan
aFnan
aFnan
aFnan
aFnan
aFnan
aFnan
aFnan
aFnan
aFnan
aFnan
aFnan
aFnan
aFnan
aFnan
aFnan
aFnan
aFnan
aF6.82
aFnan
aFnan
aFnan
aFnan
aFnan
aFnan
aFnan
aFnan
aFnan
aFnan
aFnan
aFnan
aFnan
aFnan
aFnan
aFnan
aFnan
aFnan
aFnan
aFnan
aF6.87
aFnan
aFnan
aFnan
aFnan
aFnan
aF33.08
aF40.87
aF63.79
aF29.16
aF32.77
aF38.57
aF31.84
aF69.71
aF39.93
aF38.69
aFnan
aF30.24
aF42.25
aF30.64
aF29.96
aF18.96
aF32.7
aF29.96
aF39.27
aF32.93
aFnan
aFnan
aFnan
aFnan
aFnan
aFnan
aFnan
aFnan
aFnan
aFnan
aFnan
aF193.51
aFnan
aFnan
aFnan
aFnan
aFnan
aFnan
aFnan
aFnan
aFnan
aFnan
aFnan
aFnan
aFnan
aFnan
aFnan
aFnan
aFnan
aFnan
aFnan
aFnan
aFnan
aFnan
aF7.28
aFnan
aFnan
aFnan
aFnan
aFnan
aFnan
aFnan
aFnan
aFnan
aFnan
aFnan
aFnan
aFnan
aFnan
aFnan
aF3.96
aFnan
aFnan
aFnan
aFnan
aFnan
aFnan
aFnan
aFnan
aFnan
aFnan
aFnan
aFnan
aFnan
aFnan
aFnan
aFnan
aFnan
aFnan
aF112.76
aFnan
aFnan
aFnan
aFnan
aFnan
aFnan
aFnan
aFnan
aFnan
aFnan
aF174.92
aF176.44
aF174.66
aF176.36
aF176.71
aF175.92
aF176.76
aF174.57
aF175.49
aF175.3
aF173.9
aF175.26
aF177.07
aF176.47
aF176.21
aF177.8
aF175.71
aF176.93
aF175.48
aF176.25
aF8.38
aF8.3
aF8.28
aF8.22
aF8.18
aF8.27
aFnan
aF8.24
aF8.34
aF8.32
aF8.33
aF8.25
aF8.22
aF8.23
aF8.27
aF8.19
aF8.28
aF8.33
aF8.3
aF8.25
aF58.16
aF54.69
aF58.74
aF56.6
aF56.98
aF61.67
aF63.35
aF62.25
aF58.13
aF53.55
aF45.36
aF56.51
aF55.69
aF56.81
aF57.74
aF53.18
aF62.56
aF57.35
aF58.18
aF56.16
aFnan
aFnan
aFnan
aFnan
aF33.21
aFnan
aFnan
aFnan
aFnan
aFnan
aFnan
aFnan
aFnan
aFnan
aFnan
aFnan
aFnan
aFnan
aFnan
aFnan
aFnan
aF179.31
aFnan
aF33.78
aF24.89
aFnan
aF27.19
aFnan
aF138.38
aF176.77
aFnan
aF131.97
aF26.78
aF27.21
aF111.03
aFnan
aFnan
aF36.1
aF129.62
aF32.02
aFnan
aFnan
aFnan
aFnan
aF41.88
aFnan
aFnan
aFnan
aFnan
aFnan
aFnan
aFnan
aFnan
aFnan
aFnan
aFnan
aFnan
aFnan
aFnan
aF17.11
aF120.11
aF120.68
aF116.27
aF119.92
aF121.03
aF121.42
aF134.96
aF115.35
aF120.38
aF118.91
aF109.59
aF119.7
aF121.83
aF120.8
aF121.59
aF123.29
aF121.09
aF120.71
aF120.49
aF120.1
aFnan
aFnan
aFnan
aFnan
aFnan
aFnan
aFnan
aFnan
aF129.21
aFnan
aFnan
aFnan
aFnan
aF160.04
aFnan
aFnan
aFnan
aFnan
aF156.87
aFnan
aFnan
aFnan
aFnan
aFnan
aFnan
aFnan
aFnan
aFnan
aFnan
aFnan
aFnan
aFnan
aFnan
aF74.44
aFnan
aFnan
aFnan
aFnan
aFnan
aFnan
aFnan
aFnan
aFnan
aFnan
aFnan
aFnan
aFnan
aFnan
aF130.77
aFnan
aFnan
aFnan
aFnan
aFnan
aF138.12
aFnan
aFnan
aFnan
aF117.91
aFnan
aFnan
aFnan
aFnan
aFnan
aFnan
aFnan
aFnan
aFnan
aF130.73
aFnan
aFnan
aF137.64
aFnan
aFnan
aFnan
aFnan
aFnan
aFnan
aF117.94
aFnan
aFnan
aFnan
aFnan
aFnan
aFnan
aFnan
aFnan
aFnan
aFnan
aFnan
aFnan
aFnan
aFnan
aF72.77
aFnan
aFnan
aFnan
aFnan
aFnan
aFnan
aFnan
aFnan
aFnan
aFnan
aFnan
aF27.73
aFnan
aFnan
aFnan
aFnan
aFnan
aFnan
aFnan
aFnan
aFnan
aFnan
aF21.51
aFnan
aFnan
aFnan
aFnan
aFnan
aFnan
aF179.73
aF28.95
aFnan
aF50.33
aFnan
aFnan
aFnan
aFnan
aFnan
aFnan
aF43.14
aFnan
aFnan
aFnan
aF182.26
aFnan
aFnan
aFnan
aFnan
aFnan
aFnan
aFnan
aFnan
aFnan
aFnan
aFnan
aFnan
aFnan
aFnan
aFnan
aFnan
aF6.98
aFnan
aFnan
aFnan
aFnan
aFnan
aFnan
aFnan
aFnan
aFnan
aFnan
aFnan
aFnan
aFnan
aFnan
aFnan
aF3.9
aFnan
aFnan
aFnan
aFnan
aFnan
aFnan
aFnan
aFnan
aFnan
aFnan
aFnan
aFnan
aFnan
aF1.6
aFnan
aF3.61
aFnan
aFnan
aFnan
aFnan
aFnan
aFnan
aF3.1
aFnan
aFnan
aFnan
aFnan
aFnan
aFnan
aFnan
aF6.06
aFnan
aFnan
aF1.6
aFnan
aF3.65
aFnan
aF7.06
aFnan
aFnan
aF7.0
aF0.73
aF3.12
aFnan
aFnan
aFnan
aFnan
aF6.93
aFnan
aFnan
aFnan
aFnan
aFnan
aFnan
aF0.68
aFnan
aFnan
aF7.06
aFnan
aFnan
aF8.58
aF0.75
aFnan
aF7.14
aFnan
aFnan
aFnan
aF6.93
aFnan
aFnan
aFnan
aFnan
aFnan
aFnan
aFnan
aFnan
aFnan
aFnan
aFnan
aFnan
aFnan
aFnan
aFnan
aF123.81
aFnan
aFnan
aFnan
aFnan
aFnan
aFnan
aFnan
aFnan
aFnan
aFnan
aFnan
aFnan
aFnan
aFnan
aFnan
aFnan
aFnan
aFnan
aF6.86
aFnan
aFnan
aFnan
aFnan
aFnan
aFnan
aFnan
aFnan
aFnan
aFnan
aFnan
aFnan
aFnan
aFnan
aFnan
aFnan
aFnan
aFnan
aFnan
aF6.9
aFnan
aFnan
aFnan
aFnan
aFnan
aFnan
aFnan
aFnan
aFnan
aFnan
aFnan
aFnan
aFnan
aFnan
aFnan
aFnan
aFnan
aFnan
aFnan
aFnan
aF120.46
aFnan
aFnan
aFnan
aFnan
aFnan
aFnan
aFnan
aFnan
aFnan
aFnan
aFnan
aFnan
aFnan
aFnan
aFnan
aFnan
aFnan
aFnan
aFnan
aF129.29
aFnan
aFnan
aFnan
aFnan
aFnan
aFnan
aFnan
aFnan
aF111.86
aFnan
aFnan
aFnan
aFnan
aFnan
aFnan
aFnan
aF184.66
aFnan
aFnan
aFnan
aFnan
aFnan
aFnan
aFnan
aFnan
aF2.89
aF2.66
aF3.85
aF2.01
aF1.75
aFnan
aF2.0
aFnan
aF2.94
aF2.75
aFnan
aF3.05
aF1.52
aF1.76
aF3.12
aFnan
aFnan
aF2.0
aF2.84
aF1.99
aF2.95
aF2.71
aF3.87
aF2.04
aF1.78
aFnan
aF2.08
aFnan
aF3.0
aF2.8
aFnan
aF3.1
aF1.61
aF1.79
aF3.19
aFnan
aFnan
aF2.02
aF2.9
aF2.02
atp188
ba(lp189
g17
(g18
(dp190
g20
g21
(g22
(I0
tp191
g24
tp192
Rp193
(I1
(L59L
tp194
g31
I00
(lp195
g35
ag36
ag37
ag38
ag39
ag40
ag41
ag42
ag43
ag44
ag45
ag46
ag47
ag48
ag49
ag50
ag51
ag52
ag53
ag54
ag55
ag56
ag57
ag58
ag59
ag60
ag61
ag62
ag63
ag64
ag65
ag66
ag67
ag68
ag69
ag70
ag71
ag72
ag73
ag74
ag75
ag76
ag77
ag78
ag79
ag80
ag81
ag82
ag83
ag84
ag85
ag86
ag87
ag88
ag89
ag90
ag91
ag92
ag93
atp196
bsg95
Nstp197
Rp198
a(dp199
g145
(dp200
g147
g163
sg148
(lp201
(dp202
g151
g152
(I0
I59
L1L
tp203
Rp204
sg155
g185
sasstp205
bsbs.